; Function Attrs: mustprogress nounwind uwtable
define void @_ZN32pxrInternal_v0_24__pxrReserved__13UsdStageCacheD2Ev(ptr nocapture noundef nonnull align 8 dereferenceable(48) %0) unnamed_addr #0 align 2 personality ptr @__gxx_personality_v0 {
  %2 = load ptr, ptr %0, align 8
  %.not.i = icmp eq ptr %2, null
  br i1 %.not.i, label %_ZNSt10unique_ptrIN32pxrInternal_v0_24__pxrReserved__18Usd_StageCacheImplESt14default_deleteIS1_EED2Ev.exit, label %_ZNKSt14default_deleteIN32pxrInternal_v0_24__pxrReserved__18Usd_StageCacheImplEEclEPS1_.exit.i

_ZNKSt14default_deleteIN32pxrInternal_v0_24__pxrReserved__18Usd_StageCacheImplEEclEPS1_.exit.i: ; preds = %1
  tail call void @_ZN32pxrInternal_v0_24__pxrReserved__18Usd_StageCacheImplD2Ev(ptr noundef nonnull align 8 dereferenceable(224) %2) #18
  tail call void @_ZdlPvm(ptr noundef nonnull %2, i64 noundef 224) #16
  br label %_ZNSt10unique_ptrIN32pxrInternal_v0_24__pxrReserved__18Usd_StageCacheImplESt14default_deleteIS1_EED2Ev.exit

_ZNSt10unique_ptrIN32pxrInternal_v0_24__pxrReserved__18Usd_StageCacheImplESt14default_deleteIS1_EED2Ev.exit: ; preds = %1, %_ZNKSt14default_deleteIN32pxrInternal_v0_24__pxrReserved__18Usd_StageCacheImplEEclEPS1_.exit.i
  store ptr null, ptr %0, align 8
  ret void
}